target datalayout = "e-m:e-p270:32:32-p271:32:32-p272:64:64-i64:64-i128:128-f80:128-n8:16:32:64-S128"
target triple = "x86_64-pc-linux-gnu"

%struct.lv_sdl_mouse_t = type { i16, i16, i8 }
%struct.lv_indev_data_t = type { %struct.lv_point_t, i32, i32, i16, i32, i8 }
%struct.lv_point_t = type { i32, i32 }

; Function Attrs: nounwind uwtable
define internal void @sdl_mouse_read(ptr noundef %0, ptr noundef %1) #0 {
  %3 = alloca ptr, align 8
  %4 = alloca ptr, align 8
  %5 = alloca ptr, align 8
  store ptr %0, ptr %3, align 8, !tbaa !3
  store ptr %1, ptr %4, align 8, !tbaa !3
  call void @llvm.lifetime.start.p0(i64 8, ptr %5) #3
  %6 = load ptr, ptr %3, align 8, !tbaa !3
  %7 = call ptr @lv_indev_get_driver_data(ptr noundef %6)
  store ptr %7, ptr %5, align 8, !tbaa !3
  %8 = load ptr, ptr %5, align 8, !tbaa !3
  %9 = getelementptr inbounds nuw %struct.lv_sdl_mouse_t, ptr %8, i32 0, i32 0
  %10 = load i16, ptr %9, align 2, !tbaa !7
  %11 = sext i16 %10 to i32
  %12 = load ptr, ptr %4, align 8, !tbaa !3
  %13 = getelementptr inbounds nuw %struct.lv_indev_data_t, ptr %12, i32 0, i32 0
  %14 = getelementptr inbounds nuw %struct.lv_point_t, ptr %13, i32 0, i32 0
  store i32 %11, ptr %14, align 4, !tbaa !11
  %15 = load ptr, ptr %5, align 8, !tbaa !3
  %16 = getelementptr inbounds nuw %struct.lv_sdl_mouse_t, ptr %15, i32 0, i32 1
  %17 = load i16, ptr %16, align 2, !tbaa !15
  %18 = sext i16 %17 to i32
  %19 = load ptr, ptr %4, align 8, !tbaa !3
  %20 = getelementptr inbounds nuw %struct.lv_indev_data_t, ptr %19, i32 0, i32 0
  %21 = getelementptr inbounds nuw %struct.lv_point_t, ptr %20, i32 0, i32 1
  store i32 %18, ptr %21, align 4, !tbaa !16
  %22 = load ptr, ptr %5, align 8, !tbaa !3
  %23 = getelementptr inbounds nuw %struct.lv_sdl_mouse_t, ptr %22, i32 0, i32 2
  %24 = load i8, ptr %23, align 2, !tbaa !17, !range !18, !noundef !19
  %25 = trunc i8 %24 to i1
  %26 = select i1 %25, i32 1, i32 0
  %27 = load ptr, ptr %4, align 8, !tbaa !3
  %28 = getelementptr inbounds nuw %struct.lv_indev_data_t, ptr %27, i32 0, i32 4
  store i32 %26, ptr %28, align 4, !tbaa !20
  call void @llvm.lifetime.end.p0(i64 8, ptr %5) #3
  ret void
}