; Function Attrs: nounwind uwtable
define internal void @sdl_mouse_read(ptr noundef %0, ptr nocapture noundef writeonly %1) #0 {
  %3 = tail call ptr @lv_indev_get_driver_data(ptr noundef %0) #2
  %4 = load i16, ptr %3, align 2, !tbaa !3
  %5 = sext i16 %4 to i32
  store i32 %5, ptr %1, align 4, !tbaa !9
  %6 = getelementptr inbounds nuw i8, ptr %3, i64 2
  %7 = load i16, ptr %6, align 2, !tbaa !13
  %8 = sext i16 %7 to i32
  %9 = getelementptr inbounds nuw i8, ptr %1, i64 4
  store i32 %8, ptr %9, align 4, !tbaa !14
  %10 = getelementptr inbounds nuw i8, ptr %3, i64 4
  %11 = load i8, ptr %10, align 2, !tbaa !15, !range !16, !noundef !17
  %12 = zext nneg i8 %11 to i32
  %13 = getelementptr inbounds nuw i8, ptr %1, i64 20
  store i32 %12, ptr %13, align 4, !tbaa !18
  ret void
}